; Function Attrs: mustprogress uwtable
define noundef ptr @_ZN6google8protobuf8internal18EpsCopyInputStream8InitFromEPNS0_2io19ZeroCopyInputStreamE(ptr noundef nonnull align 8 dereferenceable(88) initializes((28, 40)) %0, ptr noundef %1) local_unnamed_addr #3 align 2 {
  %3 = alloca ptr, align 8
  %4 = alloca i32, align 4
  %5 = getelementptr inbounds nuw i8, ptr %0, i64 32
  store ptr %1, ptr %5, align 8, !tbaa !16
  call void @llvm.lifetime.start.p0(i64 8, ptr nonnull %3) #15
  call void @llvm.lifetime.start.p0(i64 4, ptr nonnull %4) #15
  %6 = getelementptr inbounds nuw i8, ptr %0, i64 28
  store i32 2147483647, ptr %6, align 4, !tbaa !24
  %7 = load ptr, ptr %1, align 8, !tbaa !17
  %8 = getelementptr inbounds nuw i8, ptr %7, i64 16
  %9 = load ptr, ptr %8, align 8
  %10 = call noundef zeroext i1 %9(ptr noundef nonnull align 8 dereferenceable(8) %1, ptr noundef nonnull %3, ptr noundef nonnull %4)
  br i1 %10, label %11, label %41

11:                                               ; preds = %2
  %12 = load i32, ptr %4, align 4, !tbaa !40
  %13 = getelementptr inbounds nuw i8, ptr %0, i64 84
  %14 = load i32, ptr %13, align 4, !tbaa !15
  %15 = sub nsw i32 %14, %12
  store i32 %15, ptr %13, align 4, !tbaa !15
  %16 = icmp sgt i32 %12, 16
  br i1 %16, label %17, label %31

17:                                               ; preds = %11
  %18 = load ptr, ptr %3, align 8, !tbaa !19
  %19 = load i32, ptr %6, align 4, !tbaa !24
  %reass.sub = sub i32 %19, %12
  %20 = add i32 %reass.sub, 16
  store i32 %20, ptr %6, align 4, !tbaa !24
  %21 = zext nneg i32 %12 to i64
  %22 = getelementptr inbounds nuw i8, ptr %18, i64 %21
  %23 = getelementptr inbounds i8, ptr %22, i64 -16
  %24 = getelementptr inbounds nuw i8, ptr %0, i64 8
  store ptr %23, ptr %24, align 8, !tbaa !13
  store ptr %23, ptr %0, align 8, !tbaa !22
  %25 = getelementptr inbounds nuw i8, ptr %0, i64 40
  %26 = getelementptr inbounds nuw i8, ptr %0, i64 16
  store ptr %25, ptr %26, align 8, !tbaa !3
  %27 = getelementptr inbounds nuw i8, ptr %0, i64 72
  %28 = load i64, ptr %27, align 8, !tbaa !14
  %29 = icmp eq i64 %28, 1
  br i1 %29, label %30, label %47

30:                                               ; preds = %17
  store i64 2, ptr %27, align 8, !tbaa !14
  br label %47

31:                                               ; preds = %11
  %32 = getelementptr inbounds nuw i8, ptr %0, i64 40
  %33 = getelementptr inbounds nuw i8, ptr %0, i64 56
  %34 = getelementptr inbounds nuw i8, ptr %0, i64 8
  store ptr %33, ptr %34, align 8, !tbaa !13
  store ptr %33, ptr %0, align 8, !tbaa !22
  %35 = getelementptr inbounds nuw i8, ptr %0, i64 16
  store ptr %32, ptr %35, align 8, !tbaa !3
  %36 = getelementptr inbounds nuw i8, ptr %0, i64 72
  %37 = sext i32 %12 to i64
  %38 = sub nsw i64 0, %37
  %39 = getelementptr inbounds i8, ptr %36, i64 %38
  %40 = load ptr, ptr %3, align 8, !tbaa !19
  call void @llvm.memcpy.p0.p0.i64(ptr nonnull align 1 %39, ptr align 1 %40, i64 %37, i1 false)
  br label %47

41:                                               ; preds = %2
  %42 = getelementptr inbounds nuw i8, ptr %0, i64 84
  store i32 0, ptr %42, align 4, !tbaa !15
  %43 = getelementptr inbounds nuw i8, ptr %0, i64 16
  store ptr null, ptr %43, align 8, !tbaa !3
  %44 = getelementptr inbounds nuw i8, ptr %0, i64 24
  store i32 0, ptr %44, align 8, !tbaa !12
  %45 = getelementptr inbounds nuw i8, ptr %0, i64 40
  %46 = getelementptr inbounds nuw i8, ptr %0, i64 8
  store ptr %45, ptr %46, align 8, !tbaa !13
  store ptr %45, ptr %0, align 8, !tbaa !22
  br label %47

47:                                               ; preds = %17, %30, %41, %31
  %.0 = phi ptr [ %39, %31 ], [ %45, %41 ], [ %18, %30 ], [ %18, %17 ]
  call void @llvm.lifetime.end.p0(i64 4, ptr nonnull %4) #15
  call void @llvm.lifetime.end.p0(i64 8, ptr nonnull %3) #15
  ret ptr %.0
}